target datalayout = "e-m:e-p270:32:32-p271:32:32-p272:64:64-i64:64-i128:128-f80:128-n8:16:32:64-S128"
target triple = "x86_64-pc-linux-gnu"

; Function Attrs: mustprogress nounwind uwtable
define linkonce_odr hidden noundef ptr @_ZNK4LIEF6Object2asINS_5MachO11LoadCommandEEENSt11add_pointerINSt9add_constINSt5decayIT_E4typeEE4typeEE4typeEv(ptr noundef nonnull align 8 dereferenceable(8) %0) #0 comdat align 2 {
  %2 = alloca ptr, align 8
  store ptr %0, ptr %2, align 8
  %3 = load ptr, ptr %2, align 8
  ret ptr %3
}

; Function Attrs: mustprogress uwtable
define void @_ZN4LIEF5MachO4Hash5visitERKNS0_20DynamicSymbolCommandE(ptr noundef nonnull align 8 dereferenceable(64) %0, ptr noundef nonnull align 8 dereferenceable(152) %1) unnamed_addr #3 align 2 {
  %3 = alloca ptr, align 8
  %4 = alloca ptr, align 8
  store ptr %0, ptr %3, align 8
  store ptr %1, ptr %4, align 8
  %5 = load ptr, ptr %3, align 8
  %6 = load ptr, ptr %4, align 8
  %7 = call noundef ptr @_ZNK4LIEF6Object2asINS_5MachO11LoadCommandEEENSt11add_pointerINSt9add_constINSt5decayIT_E4typeEE4typeEE4typeEv(ptr noundef nonnull align 8 dereferenceable(8) %6)
  %8 = load ptr, ptr %5, align 8
  %9 = getelementptr inbounds ptr, ptr %8, i64 109
  %10 = load ptr, ptr %9, align 8
  call void %10(ptr noundef nonnull align 8 dereferenceable(64) %5, ptr noundef nonnull align 8 dereferenceable(56) %7)
  %11 = load ptr, ptr %4, align 8
  %12 = call noundef i32 @_ZNK4LIEF5MachO20DynamicSymbolCommand16idx_local_symbolEv(ptr noundef nonnull align 8 dereferenceable(152) %11)
  %13 = zext i32 %12 to i64
  %14 = load ptr, ptr %5, align 8
  %15 = getelementptr inbounds ptr, ptr %14, i64 166
  %16 = load ptr, ptr %15, align 8
  %17 = call noundef nonnull align 8 dereferenceable(64) ptr %16(ptr noundef nonnull align 8 dereferenceable(64) %5, i64 noundef %13)
  %18 = load ptr, ptr %4, align 8
  %19 = call noundef i32 @_ZNK4LIEF5MachO20DynamicSymbolCommand16nb_local_symbolsEv(ptr noundef nonnull align 8 dereferenceable(152) %18)
  %20 = zext i32 %19 to i64
  %21 = load ptr, ptr %5, align 8
  %22 = getelementptr inbounds ptr, ptr %21, i64 166
  %23 = load ptr, ptr %22, align 8
  %24 = call noundef nonnull align 8 dereferenceable(64) ptr %23(ptr noundef nonnull align 8 dereferenceable(64) %5, i64 noundef %20)
  %25 = load ptr, ptr %4, align 8
  %26 = call noundef i32 @_ZNK4LIEF5MachO20DynamicSymbolCommand26idx_external_define_symbolEv(ptr noundef nonnull align 8 dereferenceable(152) %25)
  %27 = zext i32 %26 to i64
  %28 = load ptr, ptr %5, align 8
  %29 = getelementptr inbounds ptr, ptr %28, i64 166
  %30 = load ptr, ptr %29, align 8
  %31 = call noundef nonnull align 8 dereferenceable(64) ptr %30(ptr noundef nonnull align 8 dereferenceable(64) %5, i64 noundef %27)
  %32 = load ptr, ptr %4, align 8
  %33 = call noundef i32 @_ZNK4LIEF5MachO20DynamicSymbolCommand26nb_external_define_symbolsEv(ptr noundef nonnull align 8 dereferenceable(152) %32)
  %34 = zext i32 %33 to i64
  %35 = load ptr, ptr %5, align 8
  %36 = getelementptr inbounds ptr, ptr %35, i64 166
  %37 = load ptr, ptr %36, align 8
  %38 = call noundef nonnull align 8 dereferenceable(64) ptr %37(ptr noundef nonnull align 8 dereferenceable(64) %5, i64 noundef %34)
  %39 = load ptr, ptr %4, align 8
  %40 = call noundef i32 @_ZNK4LIEF5MachO20DynamicSymbolCommand20idx_undefined_symbolEv(ptr noundef nonnull align 8 dereferenceable(152) %39)
  %41 = zext i32 %40 to i64
  %42 = load ptr, ptr %5, align 8
  %43 = getelementptr inbounds ptr, ptr %42, i64 166
  %44 = load ptr, ptr %43, align 8
  %45 = call noundef nonnull align 8 dereferenceable(64) ptr %44(ptr noundef nonnull align 8 dereferenceable(64) %5, i64 noundef %41)
  %46 = load ptr, ptr %4, align 8
  %47 = call noundef i32 @_ZNK4LIEF5MachO20DynamicSymbolCommand20nb_undefined_symbolsEv(ptr noundef nonnull align 8 dereferenceable(152) %46)
  %48 = zext i32 %47 to i64
  %49 = load ptr, ptr %5, align 8
  %50 = getelementptr inbounds ptr, ptr %49, i64 166
  %51 = load ptr, ptr %50, align 8
  %52 = call noundef nonnull align 8 dereferenceable(64) ptr %51(ptr noundef nonnull align 8 dereferenceable(64) %5, i64 noundef %48)
  %53 = load ptr, ptr %4, align 8
  %54 = call noundef i32 @_ZNK4LIEF5MachO20DynamicSymbolCommand10toc_offsetEv(ptr noundef nonnull align 8 dereferenceable(152) %53)
  %55 = zext i32 %54 to i64
  %56 = load ptr, ptr %5, align 8
  %57 = getelementptr inbounds ptr, ptr %56, i64 166
  %58 = load ptr, ptr %57, align 8
  %59 = call noundef nonnull align 8 dereferenceable(64) ptr %58(ptr noundef nonnull align 8 dereferenceable(64) %5, i64 noundef %55)
  %60 = load ptr, ptr %4, align 8
  %61 = call noundef i32 @_ZNK4LIEF5MachO20DynamicSymbolCommand6nb_tocEv(ptr noundef nonnull align 8 dereferenceable(152) %60)
  %62 = zext i32 %61 to i64
  %63 = load ptr, ptr %5, align 8
  %64 = getelementptr inbounds ptr, ptr %63, i64 166
  %65 = load ptr, ptr %64, align 8
  %66 = call noundef nonnull align 8 dereferenceable(64) ptr %65(ptr noundef nonnull align 8 dereferenceable(64) %5, i64 noundef %62)
  %67 = load ptr, ptr %4, align 8
  %68 = call noundef i32 @_ZNK4LIEF5MachO20DynamicSymbolCommand19module_table_offsetEv(ptr noundef nonnull align 8 dereferenceable(152) %67)
  %69 = zext i32 %68 to i64
  %70 = load ptr, ptr %5, align 8
  %71 = getelementptr inbounds ptr, ptr %70, i64 166
  %72 = load ptr, ptr %71, align 8
  %73 = call noundef nonnull align 8 dereferenceable(64) ptr %72(ptr noundef nonnull align 8 dereferenceable(64) %5, i64 noundef %69)
  %74 = load ptr, ptr %4, align 8
  %75 = call noundef i32 @_ZNK4LIEF5MachO20DynamicSymbolCommand15nb_module_tableEv(ptr noundef nonnull align 8 dereferenceable(152) %74)
  %76 = zext i32 %75 to i64
  %77 = load ptr, ptr %5, align 8
  %78 = getelementptr inbounds ptr, ptr %77, i64 166
  %79 = load ptr, ptr %78, align 8
  %80 = call noundef nonnull align 8 dereferenceable(64) ptr %79(ptr noundef nonnull align 8 dereferenceable(64) %5, i64 noundef %76)
  %81 = load ptr, ptr %4, align 8
  %82 = call noundef i32 @_ZNK4LIEF5MachO20DynamicSymbolCommand32external_reference_symbol_offsetEv(ptr noundef nonnull align 8 dereferenceable(152) %81)
  %83 = zext i32 %82 to i64
  %84 = load ptr, ptr %5, align 8
  %85 = getelementptr inbounds ptr, ptr %84, i64 166
  %86 = load ptr, ptr %85, align 8
  %87 = call noundef nonnull align 8 dereferenceable(64) ptr %86(ptr noundef nonnull align 8 dereferenceable(64) %5, i64 noundef %83)
  %88 = load ptr, ptr %4, align 8
  %89 = call noundef i32 @_ZNK4LIEF5MachO20DynamicSymbolCommand29nb_external_reference_symbolsEv(ptr noundef nonnull align 8 dereferenceable(152) %88)
  %90 = zext i32 %89 to i64
  %91 = load ptr, ptr %5, align 8
  %92 = getelementptr inbounds ptr, ptr %91, i64 166
  %93 = load ptr, ptr %92, align 8
  %94 = call noundef nonnull align 8 dereferenceable(64) ptr %93(ptr noundef nonnull align 8 dereferenceable(64) %5, i64 noundef %90)
  %95 = load ptr, ptr %4, align 8
  %96 = call noundef i32 @_ZNK4LIEF5MachO20DynamicSymbolCommand22indirect_symbol_offsetEv(ptr noundef nonnull align 8 dereferenceable(152) %95)
  %97 = zext i32 %96 to i64
  %98 = load ptr, ptr %5, align 8
  %99 = getelementptr inbounds ptr, ptr %98, i64 166
  %100 = load ptr, ptr %99, align 8
  %101 = call noundef nonnull align 8 dereferenceable(64) ptr %100(ptr noundef nonnull align 8 dereferenceable(64) %5, i64 noundef %97)
  %102 = load ptr, ptr %4, align 8
  %103 = call noundef i32 @_ZNK4LIEF5MachO20DynamicSymbolCommand19nb_indirect_symbolsEv(ptr noundef nonnull align 8 dereferenceable(152) %102)
  %104 = zext i32 %103 to i64
  %105 = load ptr, ptr %5, align 8
  %106 = getelementptr inbounds ptr, ptr %105, i64 166
  %107 = load ptr, ptr %106, align 8
  %108 = call noundef nonnull align 8 dereferenceable(64) ptr %107(ptr noundef nonnull align 8 dereferenceable(64) %5, i64 noundef %104)
  %109 = load ptr, ptr %4, align 8
  %110 = call noundef i32 @_ZNK4LIEF5MachO20DynamicSymbolCommand26external_relocation_offsetEv(ptr noundef nonnull align 8 dereferenceable(152) %109)
  %111 = zext i32 %110 to i64
  %112 = load ptr, ptr %5, align 8
  %113 = getelementptr inbounds ptr, ptr %112, i64 166
  %114 = load ptr, ptr %113, align 8
  %115 = call noundef nonnull align 8 dereferenceable(64) ptr %114(ptr noundef nonnull align 8 dereferenceable(64) %5, i64 noundef %111)
  %116 = load ptr, ptr %4, align 8
  %117 = call noundef i32 @_ZNK4LIEF5MachO20DynamicSymbolCommand23nb_external_relocationsEv(ptr noundef nonnull align 8 dereferenceable(152) %116)
  %118 = zext i32 %117 to i64
  %119 = load ptr, ptr %5, align 8
  %120 = getelementptr inbounds ptr, ptr %119, i64 166
  %121 = load ptr, ptr %120, align 8
  %122 = call noundef nonnull align 8 dereferenceable(64) ptr %121(ptr noundef nonnull align 8 dereferenceable(64) %5, i64 noundef %118)
  %123 = load ptr, ptr %4, align 8
  %124 = call noundef i32 @_ZNK4LIEF5MachO20DynamicSymbolCommand23local_relocation_offsetEv(ptr noundef nonnull align 8 dereferenceable(152) %123)
  %125 = zext i32 %124 to i64
  %126 = load ptr, ptr %5, align 8
  %127 = getelementptr inbounds ptr, ptr %126, i64 166
  %128 = load ptr, ptr %127, align 8
  %129 = call noundef nonnull align 8 dereferenceable(64) ptr %128(ptr noundef nonnull align 8 dereferenceable(64) %5, i64 noundef %125)
  %130 = load ptr, ptr %4, align 8
  %131 = call noundef i32 @_ZNK4LIEF5MachO20DynamicSymbolCommand20nb_local_relocationsEv(ptr noundef nonnull align 8 dereferenceable(152) %130)
  %132 = zext i32 %131 to i64
  %133 = load ptr, ptr %5, align 8
  %134 = getelementptr inbounds ptr, ptr %133, i64 166
  %135 = load ptr, ptr %134, align 8
  %136 = call noundef nonnull align 8 dereferenceable(64) ptr %135(ptr noundef nonnull align 8 dereferenceable(64) %5, i64 noundef %132)
  ret void
}