; Function Attrs: mustprogress uwtable
define void @_ZN4LIEF5MachO4Hash5visitERKNS0_20DynamicSymbolCommandE(ptr noundef nonnull align 8 dereferenceable(64) %0, ptr noundef nonnull align 8 dereferenceable(152) %1) unnamed_addr #3 align 2 {
  %3 = load ptr, ptr %0, align 8
  %4 = getelementptr inbounds i8, ptr %3, i64 872
  %5 = load ptr, ptr %4, align 8
  tail call void %5(ptr noundef nonnull align 8 dereferenceable(64) %0, ptr noundef nonnull align 8 dereferenceable(56) %1)
  %6 = tail call noundef i32 @_ZNK4LIEF5MachO20DynamicSymbolCommand16idx_local_symbolEv(ptr noundef nonnull align 8 dereferenceable(152) %1)
  %7 = zext i32 %6 to i64
  %8 = load ptr, ptr %0, align 8
  %9 = getelementptr inbounds i8, ptr %8, i64 1328
  %10 = load ptr, ptr %9, align 8
  %11 = tail call noundef nonnull align 8 dereferenceable(64) ptr %10(ptr noundef nonnull align 8 dereferenceable(64) %0, i64 noundef %7)
  %12 = tail call noundef i32 @_ZNK4LIEF5MachO20DynamicSymbolCommand16nb_local_symbolsEv(ptr noundef nonnull align 8 dereferenceable(152) %1)
  %13 = zext i32 %12 to i64
  %14 = load ptr, ptr %0, align 8
  %15 = getelementptr inbounds i8, ptr %14, i64 1328
  %16 = load ptr, ptr %15, align 8
  %17 = tail call noundef nonnull align 8 dereferenceable(64) ptr %16(ptr noundef nonnull align 8 dereferenceable(64) %0, i64 noundef %13)
  %18 = tail call noundef i32 @_ZNK4LIEF5MachO20DynamicSymbolCommand26idx_external_define_symbolEv(ptr noundef nonnull align 8 dereferenceable(152) %1)
  %19 = zext i32 %18 to i64
  %20 = load ptr, ptr %0, align 8
  %21 = getelementptr inbounds i8, ptr %20, i64 1328
  %22 = load ptr, ptr %21, align 8
  %23 = tail call noundef nonnull align 8 dereferenceable(64) ptr %22(ptr noundef nonnull align 8 dereferenceable(64) %0, i64 noundef %19)
  %24 = tail call noundef i32 @_ZNK4LIEF5MachO20DynamicSymbolCommand26nb_external_define_symbolsEv(ptr noundef nonnull align 8 dereferenceable(152) %1)
  %25 = zext i32 %24 to i64
  %26 = load ptr, ptr %0, align 8
  %27 = getelementptr inbounds i8, ptr %26, i64 1328
  %28 = load ptr, ptr %27, align 8
  %29 = tail call noundef nonnull align 8 dereferenceable(64) ptr %28(ptr noundef nonnull align 8 dereferenceable(64) %0, i64 noundef %25)
  %30 = tail call noundef i32 @_ZNK4LIEF5MachO20DynamicSymbolCommand20idx_undefined_symbolEv(ptr noundef nonnull align 8 dereferenceable(152) %1)
  %31 = zext i32 %30 to i64
  %32 = load ptr, ptr %0, align 8
  %33 = getelementptr inbounds i8, ptr %32, i64 1328
  %34 = load ptr, ptr %33, align 8
  %35 = tail call noundef nonnull align 8 dereferenceable(64) ptr %34(ptr noundef nonnull align 8 dereferenceable(64) %0, i64 noundef %31)
  %36 = tail call noundef i32 @_ZNK4LIEF5MachO20DynamicSymbolCommand20nb_undefined_symbolsEv(ptr noundef nonnull align 8 dereferenceable(152) %1)
  %37 = zext i32 %36 to i64
  %38 = load ptr, ptr %0, align 8
  %39 = getelementptr inbounds i8, ptr %38, i64 1328
  %40 = load ptr, ptr %39, align 8
  %41 = tail call noundef nonnull align 8 dereferenceable(64) ptr %40(ptr noundef nonnull align 8 dereferenceable(64) %0, i64 noundef %37)
  %42 = tail call noundef i32 @_ZNK4LIEF5MachO20DynamicSymbolCommand10toc_offsetEv(ptr noundef nonnull align 8 dereferenceable(152) %1)
  %43 = zext i32 %42 to i64
  %44 = load ptr, ptr %0, align 8
  %45 = getelementptr inbounds i8, ptr %44, i64 1328
  %46 = load ptr, ptr %45, align 8
  %47 = tail call noundef nonnull align 8 dereferenceable(64) ptr %46(ptr noundef nonnull align 8 dereferenceable(64) %0, i64 noundef %43)
  %48 = tail call noundef i32 @_ZNK4LIEF5MachO20DynamicSymbolCommand6nb_tocEv(ptr noundef nonnull align 8 dereferenceable(152) %1)
  %49 = zext i32 %48 to i64
  %50 = load ptr, ptr %0, align 8
  %51 = getelementptr inbounds i8, ptr %50, i64 1328
  %52 = load ptr, ptr %51, align 8
  %53 = tail call noundef nonnull align 8 dereferenceable(64) ptr %52(ptr noundef nonnull align 8 dereferenceable(64) %0, i64 noundef %49)
  %54 = tail call noundef i32 @_ZNK4LIEF5MachO20DynamicSymbolCommand19module_table_offsetEv(ptr noundef nonnull align 8 dereferenceable(152) %1)
  %55 = zext i32 %54 to i64
  %56 = load ptr, ptr %0, align 8
  %57 = getelementptr inbounds i8, ptr %56, i64 1328
  %58 = load ptr, ptr %57, align 8
  %59 = tail call noundef nonnull align 8 dereferenceable(64) ptr %58(ptr noundef nonnull align 8 dereferenceable(64) %0, i64 noundef %55)
  %60 = tail call noundef i32 @_ZNK4LIEF5MachO20DynamicSymbolCommand15nb_module_tableEv(ptr noundef nonnull align 8 dereferenceable(152) %1)
  %61 = zext i32 %60 to i64
  %62 = load ptr, ptr %0, align 8
  %63 = getelementptr inbounds i8, ptr %62, i64 1328
  %64 = load ptr, ptr %63, align 8
  %65 = tail call noundef nonnull align 8 dereferenceable(64) ptr %64(ptr noundef nonnull align 8 dereferenceable(64) %0, i64 noundef %61)
  %66 = tail call noundef i32 @_ZNK4LIEF5MachO20DynamicSymbolCommand32external_reference_symbol_offsetEv(ptr noundef nonnull align 8 dereferenceable(152) %1)
  %67 = zext i32 %66 to i64
  %68 = load ptr, ptr %0, align 8
  %69 = getelementptr inbounds i8, ptr %68, i64 1328
  %70 = load ptr, ptr %69, align 8
  %71 = tail call noundef nonnull align 8 dereferenceable(64) ptr %70(ptr noundef nonnull align 8 dereferenceable(64) %0, i64 noundef %67)
  %72 = tail call noundef i32 @_ZNK4LIEF5MachO20DynamicSymbolCommand29nb_external_reference_symbolsEv(ptr noundef nonnull align 8 dereferenceable(152) %1)
  %73 = zext i32 %72 to i64
  %74 = load ptr, ptr %0, align 8
  %75 = getelementptr inbounds i8, ptr %74, i64 1328
  %76 = load ptr, ptr %75, align 8
  %77 = tail call noundef nonnull align 8 dereferenceable(64) ptr %76(ptr noundef nonnull align 8 dereferenceable(64) %0, i64 noundef %73)
  %78 = tail call noundef i32 @_ZNK4LIEF5MachO20DynamicSymbolCommand22indirect_symbol_offsetEv(ptr noundef nonnull align 8 dereferenceable(152) %1)
  %79 = zext i32 %78 to i64
  %80 = load ptr, ptr %0, align 8
  %81 = getelementptr inbounds i8, ptr %80, i64 1328
  %82 = load ptr, ptr %81, align 8
  %83 = tail call noundef nonnull align 8 dereferenceable(64) ptr %82(ptr noundef nonnull align 8 dereferenceable(64) %0, i64 noundef %79)
  %84 = tail call noundef i32 @_ZNK4LIEF5MachO20DynamicSymbolCommand19nb_indirect_symbolsEv(ptr noundef nonnull align 8 dereferenceable(152) %1)
  %85 = zext i32 %84 to i64
  %86 = load ptr, ptr %0, align 8
  %87 = getelementptr inbounds i8, ptr %86, i64 1328
  %88 = load ptr, ptr %87, align 8
  %89 = tail call noundef nonnull align 8 dereferenceable(64) ptr %88(ptr noundef nonnull align 8 dereferenceable(64) %0, i64 noundef %85)
  %90 = tail call noundef i32 @_ZNK4LIEF5MachO20DynamicSymbolCommand26external_relocation_offsetEv(ptr noundef nonnull align 8 dereferenceable(152) %1)
  %91 = zext i32 %90 to i64
  %92 = load ptr, ptr %0, align 8
  %93 = getelementptr inbounds i8, ptr %92, i64 1328
  %94 = load ptr, ptr %93, align 8
  %95 = tail call noundef nonnull align 8 dereferenceable(64) ptr %94(ptr noundef nonnull align 8 dereferenceable(64) %0, i64 noundef %91)
  %96 = tail call noundef i32 @_ZNK4LIEF5MachO20DynamicSymbolCommand23nb_external_relocationsEv(ptr noundef nonnull align 8 dereferenceable(152) %1)
  %97 = zext i32 %96 to i64
  %98 = load ptr, ptr %0, align 8
  %99 = getelementptr inbounds i8, ptr %98, i64 1328
  %100 = load ptr, ptr %99, align 8
  %101 = tail call noundef nonnull align 8 dereferenceable(64) ptr %100(ptr noundef nonnull align 8 dereferenceable(64) %0, i64 noundef %97)
  %102 = tail call noundef i32 @_ZNK4LIEF5MachO20DynamicSymbolCommand23local_relocation_offsetEv(ptr noundef nonnull align 8 dereferenceable(152) %1)
  %103 = zext i32 %102 to i64
  %104 = load ptr, ptr %0, align 8
  %105 = getelementptr inbounds i8, ptr %104, i64 1328
  %106 = load ptr, ptr %105, align 8
  %107 = tail call noundef nonnull align 8 dereferenceable(64) ptr %106(ptr noundef nonnull align 8 dereferenceable(64) %0, i64 noundef %103)
  %108 = tail call noundef i32 @_ZNK4LIEF5MachO20DynamicSymbolCommand20nb_local_relocationsEv(ptr noundef nonnull align 8 dereferenceable(152) %1)
  %109 = zext i32 %108 to i64
  %110 = load ptr, ptr %0, align 8
  %111 = getelementptr inbounds i8, ptr %110, i64 1328
  %112 = load ptr, ptr %111, align 8
  %113 = tail call noundef nonnull align 8 dereferenceable(64) ptr %112(ptr noundef nonnull align 8 dereferenceable(64) %0, i64 noundef %109)
  ret void
}